target datalayout = "e-m:e-p270:32:32-p271:32:32-p272:64:64-i64:64-i128:128-f80:128-n8:16:32:64-S128"
target triple = "x86_64-pc-linux-gnu"

%"class.std::__cxx11::basic_string" = type { %"struct.std::__cxx11::basic_string<char>::_Alloc_hider", i64, %union.anon }
%"struct.std::__cxx11::basic_string<char>::_Alloc_hider" = type { ptr }
%union.anon = type { i64, [8 x i8] }
%"class.cv::plugin::impl::DynamicLib" = type <{ ptr, %"class.std::__cxx11::basic_string", i8, [7 x i8] }>

; Function Attrs: inlinehint mustprogress nounwind uwtable
define internal noundef ptr @_ZN2cv6plugin4implL10getSymbol_EPvPKc(ptr noundef %0, ptr noundef %1) #7 {
  %3 = alloca ptr, align 8
  %4 = alloca ptr, align 8
  store ptr %0, ptr %3, align 8, !tbaa !80
  store ptr %1, ptr %4, align 8, !tbaa !19
  %5 = load ptr, ptr %3, align 8, !tbaa !80
  %6 = load ptr, ptr %4, align 8, !tbaa !19
  %7 = call ptr @dlsym(ptr noundef %5, ptr noundef %6) #3
  ret ptr %7
}

; Function Attrs: mustprogress uwtable
define noundef ptr @_ZNK2cv6plugin4impl10DynamicLib9getSymbolEPKc(ptr noundef nonnull align 8 dereferenceable(41) %0, ptr noundef %1) #4 align 2 {
  %3 = alloca ptr, align 8
  %4 = alloca ptr, align 8
  %5 = alloca ptr, align 8
  %6 = alloca ptr, align 8
  store ptr %0, ptr %4, align 8, !tbaa !75
  store ptr %1, ptr %5, align 8, !tbaa !19
  %7 = load ptr, ptr %4, align 8
  %8 = getelementptr inbounds nuw %"class.cv::plugin::impl::DynamicLib", ptr %7, i32 0, i32 0
  %9 = load ptr, ptr %8, align 8, !tbaa !77
  %10 = icmp ne ptr %9, null
  br i1 %10, label %12, label %11

11:                                               ; preds = %2
  store ptr null, ptr %3, align 8
  br label %22

12:                                               ; preds = %2
  call void @llvm.lifetime.start.p0(i64 8, ptr %6) #3
  %13 = getelementptr inbounds nuw %"class.cv::plugin::impl::DynamicLib", ptr %7, i32 0, i32 0
  %14 = load ptr, ptr %13, align 8, !tbaa !77
  %15 = load ptr, ptr %5, align 8, !tbaa !19
  %16 = call noundef ptr @_ZN2cv6plugin4implL10getSymbol_EPvPKc(ptr noundef %14, ptr noundef %15)
  store ptr %16, ptr %6, align 8, !tbaa !80
  %17 = load ptr, ptr %6, align 8, !tbaa !80
  %18 = icmp ne ptr %17, null
  br i1 %18, label %20, label %19

19:                                               ; preds = %12
  br label %20

20:                                               ; preds = %19, %12
  %21 = load ptr, ptr %6, align 8, !tbaa !80
  store ptr %21, ptr %3, align 8
  call void @llvm.lifetime.end.p0(i64 8, ptr %6) #3
  br label %22

22:                                               ; preds = %20, %11
  %23 = load ptr, ptr %3, align 8
  ret ptr %23
}