; Function Attrs: mustprogress nounwind uwtable
define noundef ptr @_ZNK2cv6plugin4impl10DynamicLib9getSymbolEPKc(ptr noundef nonnull readonly align 8 captures(none) dereferenceable(41) %0, ptr noundef %1) local_unnamed_addr #8 align 2 {
  %3 = load ptr, ptr %0, align 8, !tbaa !136
  %.not = icmp eq ptr %3, null
  br i1 %.not, label %6, label %4

4:                                                ; preds = %2
  %5 = tail call noundef ptr @dlsym(ptr noundef nonnull %3, ptr noundef %1) #23
  br label %6

6:                                                ; preds = %2, %4
  %.0 = phi ptr [ %5, %4 ], [ null, %2 ]
  ret ptr %.0
}